target datalayout = "e-m:e-p270:32:32-p271:32:32-p272:64:64-i64:64-i128:128-f80:128-n8:16:32:64-S128"
target triple = "x86_64-pc-linux-gnu"

%struct.evp_pkey_st = type { i32, i32, ptr, ptr, ptr, %union.legacy_pkey_st, %union.legacy_pkey_st, %struct.CRYPTO_REF_COUNT, ptr, ptr, i32, i8, %struct.crypto_ex_data_st, ptr, ptr, i64, ptr, i64, %struct.anon }
%union.legacy_pkey_st = type { ptr }
%struct.CRYPTO_REF_COUNT = type { i32 }
%struct.crypto_ex_data_st = type { ptr, ptr }
%struct.anon = type { i32, i32, i32 }
%struct.evp_pkey_asn1_method_st = type { i32, i32, i64, ptr, ptr, ptr, ptr, ptr, ptr, ptr, ptr, ptr, ptr, ptr, ptr, ptr, ptr, ptr, ptr, ptr, ptr, ptr, ptr, ptr, ptr, ptr, ptr, ptr, ptr, ptr, ptr, ptr, ptr, ptr, ptr, ptr, ptr, ptr, ptr, ptr, ptr }

; Function Attrs: nounwind uwtable
define i32 @EVP_PKEY_eq(ptr noundef %0, ptr noundef %1) #0 {
  %3 = alloca i32, align 4
  %4 = alloca ptr, align 8
  %5 = alloca ptr, align 8
  %6 = alloca i32, align 4
  %7 = alloca i32, align 4
  %8 = alloca i32, align 4
  store ptr %0, ptr %4, align 8, !tbaa !3
  store ptr %1, ptr %5, align 8, !tbaa !3
  %9 = load ptr, ptr %4, align 8, !tbaa !3
  %10 = load ptr, ptr %5, align 8, !tbaa !3
  %11 = icmp eq ptr %9, %10
  br i1 %11, label %12, label %13

12:                                               ; preds = %2
  store i32 1, ptr %3, align 4
  br label %105

13:                                               ; preds = %2
  %14 = load ptr, ptr %4, align 8, !tbaa !3
  %15 = icmp eq ptr %14, null
  br i1 %15, label %19, label %16

16:                                               ; preds = %13
  %17 = load ptr, ptr %5, align 8, !tbaa !3
  %18 = icmp eq ptr %17, null
  br i1 %18, label %19, label %20

19:                                               ; preds = %16, %13
  store i32 0, ptr %3, align 4
  br label %105

20:                                               ; preds = %16
  %21 = load ptr, ptr %4, align 8, !tbaa !3
  %22 = getelementptr inbounds nuw %struct.evp_pkey_st, ptr %21, i32 0, i32 13
  %23 = load ptr, ptr %22, align 8, !tbaa !32
  %24 = icmp ne ptr %23, null
  br i1 %24, label %30, label %25

25:                                               ; preds = %20
  %26 = load ptr, ptr %5, align 8, !tbaa !3
  %27 = getelementptr inbounds nuw %struct.evp_pkey_st, ptr %26, i32 0, i32 13
  %28 = load ptr, ptr %27, align 8, !tbaa !32
  %29 = icmp ne ptr %28, null
  br i1 %29, label %30, label %49

30:                                               ; preds = %25, %20
  call void @llvm.lifetime.start.p0(i64 4, ptr %6) #8
  store i32 4, ptr %6, align 4, !tbaa !8
  %31 = load ptr, ptr %4, align 8, !tbaa !3
  %32 = call i32 @evp_keymgmt_util_has(ptr noundef %31, i32 noundef 2)
  %33 = icmp ne i32 %32, 0
  br i1 %33, label %34, label %41

34:                                               ; preds = %30
  %35 = load ptr, ptr %5, align 8, !tbaa !3
  %36 = call i32 @evp_keymgmt_util_has(ptr noundef %35, i32 noundef 2)
  %37 = icmp ne i32 %36, 0
  br i1 %37, label %38, label %41

38:                                               ; preds = %34
  %39 = load i32, ptr %6, align 4, !tbaa !8
  %40 = or i32 %39, 2
  store i32 %40, ptr %6, align 4, !tbaa !8
  br label %44

41:                                               ; preds = %34, %30
  %42 = load i32, ptr %6, align 4, !tbaa !8
  %43 = or i32 %42, 3
  store i32 %43, ptr %6, align 4, !tbaa !8
  br label %44

44:                                               ; preds = %41, %38
  %45 = load ptr, ptr %4, align 8, !tbaa !3
  %46 = load ptr, ptr %5, align 8, !tbaa !3
  %47 = load i32, ptr %6, align 4, !tbaa !8
  %48 = call i32 @evp_pkey_cmp_any(ptr noundef %45, ptr noundef %46, i32 noundef %47)
  store i32 %48, ptr %3, align 4
  call void @llvm.lifetime.end.p0(i64 4, ptr %6) #8
  br label %105

49:                                               ; preds = %25
  %50 = load ptr, ptr %4, align 8, !tbaa !3
  %51 = getelementptr inbounds nuw %struct.evp_pkey_st, ptr %50, i32 0, i32 0
  %52 = load i32, ptr %51, align 8, !tbaa !29
  %53 = load ptr, ptr %5, align 8, !tbaa !3
  %54 = getelementptr inbounds nuw %struct.evp_pkey_st, ptr %53, i32 0, i32 0
  %55 = load i32, ptr %54, align 8, !tbaa !29
  %56 = icmp ne i32 %52, %55
  br i1 %56, label %57, label %58

57:                                               ; preds = %49
  store i32 -1, ptr %3, align 4
  br label %105

58:                                               ; preds = %49
  %59 = load ptr, ptr %4, align 8, !tbaa !3
  %60 = getelementptr inbounds nuw %struct.evp_pkey_st, ptr %59, i32 0, i32 2
  %61 = load ptr, ptr %60, align 8, !tbaa !23
  %62 = icmp ne ptr %61, null
  br i1 %62, label %63, label %104

63:                                               ; preds = %58
  call void @llvm.lifetime.start.p0(i64 4, ptr %7) #8
  %64 = load ptr, ptr %4, align 8, !tbaa !3
  %65 = getelementptr inbounds nuw %struct.evp_pkey_st, ptr %64, i32 0, i32 2
  %66 = load ptr, ptr %65, align 8, !tbaa !23
  %67 = getelementptr inbounds nuw %struct.evp_pkey_asn1_method_st, ptr %66, i32 0, i32 19
  %68 = load ptr, ptr %67, align 8, !tbaa !50
  %69 = icmp ne ptr %68, null
  br i1 %69, label %70, label %84

70:                                               ; preds = %63
  %71 = load ptr, ptr %4, align 8, !tbaa !3
  %72 = getelementptr inbounds nuw %struct.evp_pkey_st, ptr %71, i32 0, i32 2
  %73 = load ptr, ptr %72, align 8, !tbaa !23
  %74 = getelementptr inbounds nuw %struct.evp_pkey_asn1_method_st, ptr %73, i32 0, i32 19
  %75 = load ptr, ptr %74, align 8, !tbaa !50
  %76 = load ptr, ptr %4, align 8, !tbaa !3
  %77 = load ptr, ptr %5, align 8, !tbaa !3
  %78 = call i32 %75(ptr noundef %76, ptr noundef %77)
  store i32 %78, ptr %7, align 4, !tbaa !8
  %79 = load i32, ptr %7, align 4, !tbaa !8
  %80 = icmp sle i32 %79, 0
  br i1 %80, label %81, label %83

81:                                               ; preds = %70
  %82 = load i32, ptr %7, align 4, !tbaa !8
  store i32 %82, ptr %3, align 4
  store i32 1, ptr %8, align 4
  br label %101

83:                                               ; preds = %70
  br label %84

84:                                               ; preds = %83, %63
  %85 = load ptr, ptr %4, align 8, !tbaa !3
  %86 = getelementptr inbounds nuw %struct.evp_pkey_st, ptr %85, i32 0, i32 2
  %87 = load ptr, ptr %86, align 8, !tbaa !23
  %88 = getelementptr inbounds nuw %struct.evp_pkey_asn1_method_st, ptr %87, i32 0, i32 7
  %89 = load ptr, ptr %88, align 8, !tbaa !67
  %90 = icmp ne ptr %89, null
  br i1 %90, label %91, label %100

91:                                               ; preds = %84
  %92 = load ptr, ptr %4, align 8, !tbaa !3
  %93 = getelementptr inbounds nuw %struct.evp_pkey_st, ptr %92, i32 0, i32 2
  %94 = load ptr, ptr %93, align 8, !tbaa !23
  %95 = getelementptr inbounds nuw %struct.evp_pkey_asn1_method_st, ptr %94, i32 0, i32 7
  %96 = load ptr, ptr %95, align 8, !tbaa !67
  %97 = load ptr, ptr %4, align 8, !tbaa !3
  %98 = load ptr, ptr %5, align 8, !tbaa !3
  %99 = call i32 %96(ptr noundef %97, ptr noundef %98)
  store i32 %99, ptr %3, align 4
  store i32 1, ptr %8, align 4
  br label %101

100:                                              ; preds = %84
  store i32 0, ptr %8, align 4
  br label %101

101:                                              ; preds = %100, %91, %81
  call void @llvm.lifetime.end.p0(i64 4, ptr %7) #8
  %102 = load i32, ptr %8, align 4
  switch i32 %102, label %107 [
    i32 0, label %103
    i32 1, label %105
  ]

103:                                              ; preds = %101
  br label %104

104:                                              ; preds = %103, %58
  store i32 -2, ptr %3, align 4
  br label %105

105:                                              ; preds = %104, %101, %57, %44, %19, %12
  %106 = load i32, ptr %3, align 4
  ret i32 %106

107:                                              ; preds = %101
  unreachable
}