; Function Attrs: nounwind uwtable
define i32 @EVP_PKEY_eq(ptr noundef %0, ptr noundef %1) local_unnamed_addr #0 {
  %3 = icmp eq ptr %0, %1
  br i1 %3, label %.thread, label %4

4:                                                ; preds = %2
  %5 = icmp eq ptr %0, null
  %6 = icmp eq ptr %1, null
  %or.cond = or i1 %5, %6
  br i1 %or.cond, label %.thread, label %7

7:                                                ; preds = %4
  %8 = getelementptr inbounds nuw i8, ptr %0, i64 96
  %9 = load ptr, ptr %8, align 8, !tbaa !30
  %.not = icmp eq ptr %9, null
  br i1 %.not, label %10, label %13

10:                                               ; preds = %7
  %11 = getelementptr inbounds nuw i8, ptr %1, i64 96
  %12 = load ptr, ptr %11, align 8, !tbaa !30
  %.not38 = icmp eq ptr %12, null
  br i1 %.not38, label %19, label %13

13:                                               ; preds = %10, %7
  %14 = tail call i32 @evp_keymgmt_util_has(ptr noundef nonnull %0, i32 noundef 2) #12
  %.not43 = icmp eq i32 %14, 0
  br i1 %.not43, label %.split, label %15

15:                                               ; preds = %13
  %16 = tail call i32 @evp_keymgmt_util_has(ptr noundef nonnull %1, i32 noundef 2) #12
  %.not44 = icmp eq i32 %16, 0
  br i1 %.not44, label %.split, label %.split31

.split31:                                         ; preds = %15
  %17 = tail call fastcc i32 @evp_pkey_cmp_any(ptr noundef nonnull %0, ptr noundef nonnull %1, i32 noundef 6)
  br label %.thread

.split:                                           ; preds = %13, %15
  %18 = tail call fastcc i32 @evp_pkey_cmp_any(ptr noundef nonnull %0, ptr noundef nonnull %1, i32 noundef 7)
  br label %.thread

19:                                               ; preds = %10
  %20 = load i32, ptr %0, align 8, !tbaa !26
  %21 = load i32, ptr %1, align 8, !tbaa !26
  %.not39 = icmp eq i32 %20, %21
  br i1 %.not39, label %22, label %.thread

22:                                               ; preds = %19
  %23 = getelementptr inbounds nuw i8, ptr %0, i64 8
  %24 = load ptr, ptr %23, align 8, !tbaa !20
  %.not40 = icmp eq ptr %24, null
  br i1 %.not40, label %.thread, label %25

25:                                               ; preds = %22
  %26 = getelementptr inbounds nuw i8, ptr %24, i64 144
  %27 = load ptr, ptr %26, align 8, !tbaa !32
  %.not41 = icmp eq ptr %27, null
  br i1 %.not41, label %31, label %28

28:                                               ; preds = %25
  %29 = tail call i32 %27(ptr noundef nonnull %0, ptr noundef nonnull %1) #12
  %30 = icmp slt i32 %29, 1
  br i1 %30, label %.thread, label %._crit_edge

._crit_edge:                                      ; preds = %28
  %.pre = load ptr, ptr %23, align 8, !tbaa !20
  br label %31

31:                                               ; preds = %._crit_edge, %25
  %32 = phi ptr [ %.pre, %._crit_edge ], [ %24, %25 ]
  %33 = getelementptr inbounds nuw i8, ptr %32, i64 48
  %34 = load ptr, ptr %33, align 8, !tbaa !60
  %.not42 = icmp eq ptr %34, null
  br i1 %.not42, label %.thread, label %35

35:                                               ; preds = %31
  %36 = tail call i32 %34(ptr noundef nonnull %0, ptr noundef nonnull %1) #12
  br label %.thread

.thread:                                          ; preds = %28, %35, %22, %31, %19, %.split31, %.split, %4, %2
  %.028 = phi i32 [ 1, %2 ], [ 0, %4 ], [ %18, %.split ], [ %17, %.split31 ], [ -1, %19 ], [ -2, %31 ], [ -2, %22 ], [ %29, %28 ], [ %36, %35 ]
  ret i32 %.028
}